; Function Attrs: nounwind sspstrong uwtable
define dso_local zeroext i1 @job_is_cancelled_locked(ptr noundef readonly captures(none) %0) local_unnamed_addr #0 {
  %2 = getelementptr inbounds nuw i8, ptr %0, i64 183
  %3 = load i8, ptr %2, align 1, !range !4, !noundef !5
  %4 = trunc nuw i8 %3 to i1
  %.phi.trans.insert = getelementptr inbounds nuw i8, ptr %0, i64 184
  %.pre = load i8, ptr %.phi.trans.insert, align 8, !range !4
  %.pre3 = trunc nuw i8 %.pre to i1
  %.pre3.not = xor i1 %.pre3, true
  %brmerge = select i1 %4, i1 true, i1 %.pre3.not
  br i1 %brmerge, label %._crit_edge, label %5

5:                                                ; preds = %1
  tail call void @__assert_fail(ptr noundef nonnull @.str.5, ptr noundef nonnull @.str, i32 noundef 250, ptr noundef nonnull @__PRETTY_FUNCTION__.job_is_cancelled_locked) #17
  unreachable

._crit_edge:                                      ; preds = %1
  %.pre3.mux = select i1 %4, i1 %.pre3, i1 false
  ret i1 %.pre3.mux
}